-----BEGIN ENCRYPTED PRIVATE KEY-----
MIIFJDBWBgkqhkiG9w0BBQ0wSTAxBgkqhkiG9w0BBQwwJAQQ1ceC6LL3dwjvTYlB
LE4NigICCAAwDAYIKoZIhvcNAgkFADAUBggqhkiG9w0DBwQIoxW0ulnskmkEggTI
FjjmMJMr5MKquWp6z1sLVl+UvnE9fL9HsBkd/npEi05TlF5lIltr9xURQF56o+9N
n/18xGTzuzdjjo01qJJJUf/uoQYNP9IqxEcu/ltVxqny/yaQTdCD0HipI6QvJtGo
P5jTO4Ok0Y5HuLW36HzPfK4xSkZtOnyl8Sa/WGp24qV/TM6VYpXhe4rkY+N9eNmy
+Acg8etFsPWRHCyP0WXurqN22cRVClUy04luDa+Nkgvawqg7YAoeQX1bqE/DeKn/
aUdr4UtIiNy9J+o9HVs89k746lL7g0NAowxLXFvVLueMNprxHFDj9SeHUfJLPWIC
NzT07cyikx+6+fG9FpKGh7jwBP4kMl4rvRcDOCz8e9mR66pXx09eqeg2Gj5OnlAA
Md59GxDUQuIsd6ZD+eCsd99ik1RfvHJPC1GnozuaTnPWX0cKuNB8h4nCXwb39Ktf
OvIulEQlsoEdGrAWhMzjKfPKHEz6MPRtrsRJsfzQ+qV6d1w+go3sRa/L+8TMwSju
vh9vcvANVweAlZf/UPvrNyxR+Rf+waMI1hzFg6M7l4gJ9fRVGD04YNhYrwDcXVIE
hXPcy8VSP2XXCWQL35uLJxC+KmqRZdLhO3qC/t81viC7FDK3ojy6GSl6AEipH34m
/eNBjKG7+mwtmRfo6NlPbIyDgVZMsDNzyHuyVzFoFU61OL1DvJDCtpozHwcwcN35
/OVGI5x+shL7GiqOTZ/UIAbLywgLgHU+oXpliGjzbRKlaKE7AqHIqpDipN48wrya
/DvLRPv4GezUVm52cnsFc2gZOoNX/YfDVu3dlvpK6SCVT+H2bLoUkc55sjtLRw/8
HoRRtXoyl7fDEHGIFHzX3gMLidIojNC7LZrkRtNAcg7PDm/tuVvSNzwHXA2ZBnku
9nXJ85Z5tfwzLE+ZYoKWrLdniFEsA9vVEMnwgYpZlcOKIRoGIaBZnrUQqJ81NRl7
DBNOmbZCKRJoIqj4LJgmRGS8kPsnnd4DCnAi+JBa8uA49/ZdhdMoHicpO/yIPeSg
1QnCPUqh1/kEy3HuBhLbNw7YVq5GpfJ4YjYSnUUCUzUVvrRRAlMbVe7NAnheK4Eo
swiYi8jCZl2xfZw3OSi1ZK/20sJ8BAHr1KV346BxUI5or4QBCNdNn5HXxkZjForA
aMNaajvGZdnYJwyAeHbfEEejqAq4bSFk5ef+nFjzgLMv6m95s3O696+cvgWHhKm6
PYtjp2EvAvQ/whI1uacLzfojRRKKfxWrWW4QnnhYUCz+eSHYZqqcmASBDQ2qKtO3
kn76uufo/ac58wQQOsdc60nUW+bwmNmsWnO8Ay1HBGlpG9U4kT2EDVt14TLUVOMc
lrAFwfaCZ6/JDLMiDbBKrp2L2E2XXOagXju5/TVwAD1hZ9VkeFG26r0puN/v5mSB
QEzjQT8vnSBjzhtd1roZ1cnAiKNMR9digrvzMbhltpRdGc5rOgbmSIpekXZSMDKn
FWKipJ4Bs4cgXaQZPJs1NhRofcyXQO0HHm9bGxtOIM2CEc6YqzeQVH/Z9B+YHlrC
GuqYp46H/ipk8n2UHzeYnZCRcFFbt6oY/dHWgVTVkH+codXrDaSn3Vh7x9I+Kf5L
eq2PE4/LaNPd/AOr4cKUCggPNwPZnnJp
-----END ENCRYPTED PRIVATE KEY-----
Certificate:
    Data:
        Version: 3 (0x2)
        Serial Number: 4099 (0x1003)
        Signature Algorithm: sha256WithRSAEncryption
        Issuer: C=BN, ST=Sylhet, L=Sylhet, O=SUST, OU=SUST, CN=SUST/emailAddress=priyajerin9@gmail.com
        Validity
            Not Before: Jul  7 19:42:09 2024 GMT
            Not After : Jul  7 19:42:09 2025 GMT
        Subject: C=BN, ST=Sylhet, O=SUST, OU=SUST, CN=SUST/emailAddress=priyajerin9@gmail.com
        Subject Public Key Info:
            Public Key Algorithm: rsaEncryption
                Public-Key: (2048 bit)
                Modulus:
                    00:d1:6e:4e:5d:62:d6:f7:16:aa:b8:f5:c5:c7:c7:
                    25:a0:19:e6:4e:43:1f:98:0f:64:c9:a7:86:85:81:
                    52:db:68:ef:9a:3a:a0:d5:47:30:78:db:fc:ab:0b:
                    79:80:3f:32:36:14:2e:ac:7d:0d:d8:3a:5b:d7:a7:
                    31:ae:2c:4a:3e:a2:0d:19:39:96:28:83:d2:04:82:
                    30:5d:71:70:e7:4a:8b:91:c1:c9:1c:e4:ec:f4:6c:
                    2d:0a:2d:f3:14:e2:3e:11:c8:96:ff:ce:04:72:30:
                    4e:36:be:bf:58:21:3c:2a:bc:e9:56:ec:e8:6c:fb:
                    8d:45:0c:2f:8c:6f:46:2c:c7:77:60:dc:af:ab:85:
                    68:1f:f8:7a:b2:f3:0c:da:a8:9e:26:4a:b1:7d:1a:
                    e3:02:5f:23:28:82:79:5e:93:06:5a:5f:b5:c9:08:
                    56:70:94:71:82:3e:23:26:50:b2:03:61:48:27:45:
                    2a:c1:46:5f:71:bb:bc:4c:0e:b5:f3:3a:b8:98:c7:
                    d0:ff:8d:4e:49:c1:d2:c7:fe:08:19:55:cc:5e:ae:
                    b5:68:3a:ef:a8:ba:5f:fe:a6:1e:88:b1:3d:d5:65:
                    f5:df:5a:37:c8:a6:b3:5e:77:d5:c2:91:5e:13:b4:
                    04:33:22:01:bd:2d:f7:d3:6f:14:93:5f:e0:54:b9:
                    11:2f
                Exponent: 65537 (0x10001)
        X509v3 extensions:
            X509v3 Basic Constraints: 
                CA:FALSE
            X509v3 Subject Key Identifier: 
                12:5C:24:D3:8E:31:69:6A:42:50:07:BF:6D:4A:99:39:C0:2F:D1:FF
            X509v3 Authority Key Identifier: 
                A9:C3:97:47:36:14:51:E4:9A:9F:3B:5A:34:A7:CC:8B:B1:BE:20:28
    Signature Algorithm: sha256WithRSAEncryption
    Signature Value:
        2d:7b:ee:ec:1c:a3:ee:90:47:74:e8:35:de:6a:dd:99:dc:43:
        32:84:64:dd:0e:38:90:ad:0e:71:5e:03:b2:d0:6d:17:6f:d9:
        cc:2c:4a:97:5b:4c:5c:ca:9c:a3:bb:8a:7d:4a:d3:91:f8:44:
        cf:40:54:e9:7e:f8:2d:95:d5:33:76:30:83:67:5c:31:48:c0:
        01:8f:9f:6a:d6:b7:3a:3e:70:88:93:37:27:0a:c7:81:20:a2:
        2d:d1:d8:d4:59:ed:75:3d:20:34:e9:7f:d7:0a:ba:bc:1a:1b:
        aa:f8:9a:9e:1b:ac:7d:a4:7a:c9:a3:4e:5d:7d:48:43:39:af:
        07:33:27:27:d7:70:bf:03:40:b7:01:c1:11:6f:38:03:b9:32:
        ec:f5:c4:fd:9f:2e:a5:62:78:ed:46:37:02:45:a5:91:ac:06:
        89:10:5d:86:66:e6:30:a3:f2:7c:9e:f2:e3:35:02:b2:07:4f:
        d5:1c:d4:0c:f6:e5:dc:d0:13:3b:e9:fa:65:b7:a9:d5:75:1a:
        91:82:5f:99:b5:89:61:5a:26:cb:ba:61:90:a9:40:3f:a3:51:
        92:fb:9f:8d:93:fa:90:73:d5:a5:6c:dc:f6:72:58:d4:25:57:
        a3:e0:b1:2a:d7:85:38:eb:23:5b:75:4f:bb:26:4b:fd:58:29:
        86:03:4c:6a
-----BEGIN CERTIFICATE-----
MIIDvTCCAqWgAwIBAgICEAMwDQYJKoZIhvcNAQELBQAwgYIxCzAJBgNVBAYTAkJO
MQ8wDQYDVQQIDAZTeWxoZXQxDzANBgNVBAcMBlN5bGhldDENMAsGA1UECgwEU1VT
VDENMAsGA1UECwwEU1VTVDENMAsGA1UEAwwEU1VTVDEkMCIGCSqGSIb3DQEJARYV
cHJpeWFqZXJpbjlAZ21haWwuY29tMB4XDTI0MDcwNzE5NDIwOVoXDTI1MDcwNzE5
NDIwOVowcTELMAkGA1UEBhMCQk4xDzANBgNVBAgMBlN5bGhldDENMAsGA1UECgwE
U1VTVDENMAsGA1UECwwEU1VTVDENMAsGA1UEAwwEU1VTVDEkMCIGCSqGSIb3DQEJ
ARYVcHJpeWFqZXJpbjlAZ21haWwuY29tMIIBIjANBgkqhkiG9w0BAQEFAAOCAQ8A
MIIBCgKCAQEA0W5OXWLW9xaquPXFx8cloBnmTkMfmA9kyaeGhYFS22jvmjqg1Ucw
eNv8qwt5gD8yNhQurH0N2Dpb16cxrixKPqINGTmWKIPSBIIwXXFw50qLkcHJHOTs
9GwtCi3zFOI+EciW/84EcjBONr6/WCE8KrzpVuzobPuNRQwvjG9GLMd3YNyvq4Vo
H/h6svMM2qieJkqxfRrjAl8jKIJ5XpMGWl+1yQhWcJRxgj4jJlCyA2FIJ0UqwUZf
cbu8TA618zq4mMfQ/41OScHSx/4IGVXMXq61aDrvqLpf/qYeiLE91WX131o3yKaz
XnfVwpFeE7QEMyIBvS33028Uk1/gVLkRLwIDAQABo00wSzAJBgNVHRMEAjAAMB0G
A1UdDgQWBBQSXCTTjjFpakJQB79tSpk5wC/R/zAfBgNVHSMEGDAWgBSpw5dHNhRR
5JqfO1o0p8yLsb4gKDANBgkqhkiG9w0BAQsFAAOCAQEALXvu7Byj7pBHdOg13mrd
mdxDMoRk3Q44kK0OcV4DstBtF2/ZzCxKl1tMXMqco7uKfUrTkfhEz0BU6X74LZXV
M3Ywg2dcMUjAAY+fata3Oj5wiJM3JwrHgSCiLdHY1FntdT0gNOl/1wq6vBobqvia
nhusfaR6yaNOXX1IQzmvBzMnJ9dwvwNAtwHBEW84A7ky7PXE/Z8upWJ47UY3AkWl
kawGiRBdhmbmMKPyfJ7y4zUCsgdP1RzUDPbl3NATO+n6Zbep1XUakYJfmbWJYVom
y7phkKlAP6NRkvufjZP6kHPVpWzc9nJY1CVXo+CxKteFOOsjW3VPuyZL/VgphgNM
ag==
-----END CERTIFICATE-----
